ARM GAS  /tmp/cc6Ukz8d.s 			page 1


   1              		.cpu cortex-m4
   2              		.eabi_attribute 27, 1
   3              		.eabi_attribute 28, 1
   4              		.eabi_attribute 20, 1
   5              		.eabi_attribute 21, 1
   6              		.eabi_attribute 23, 3
   7              		.eabi_attribute 24, 1
   8              		.eabi_attribute 25, 1
   9              		.eabi_attribute 26, 1
  10              		.eabi_attribute 30, 2
  11              		.eabi_attribute 34, 1
  12              		.eabi_attribute 18, 4
  13              		.file	"jtest_dump_str_segments.c"
  14              		.text
  15              	.Ltext0:
  16              		.cfi_sections	.debug_frame
  17              		.section	.text.jtest_dump_str_segments,"ax",%progbits
  18              		.align	1
  19              		.p2align 2,,3
  20              		.global	jtest_dump_str_segments
  21              		.arch armv7e-m
  22              		.syntax unified
  23              		.thumb
  24              		.thumb_func
  25              		.fpu fpv4-sp-d16
  27              	jtest_dump_str_segments:
  28              	.LFB3:
  29              		.file 1 "../lib_shared/Drivers/CMSIS/DSP/DSP_Lib_TestSuite/Common/JTest/src/jtest_dump_str_segment
   1:../lib_shared/Drivers/CMSIS/DSP/DSP_Lib_TestSuite/Common/JTest/src/jtest_dump_str_segments.c **** #include "jtest_fw.h"
   2:../lib_shared/Drivers/CMSIS/DSP/DSP_Lib_TestSuite/Common/JTest/src/jtest_dump_str_segments.c **** 
   3:../lib_shared/Drivers/CMSIS/DSP/DSP_Lib_TestSuite/Common/JTest/src/jtest_dump_str_segments.c **** /**
   4:../lib_shared/Drivers/CMSIS/DSP/DSP_Lib_TestSuite/Common/JTest/src/jtest_dump_str_segments.c ****  *  Dump the JTEST_FW.str_buffer the Keil framework in pieces.
   5:../lib_shared/Drivers/CMSIS/DSP/DSP_Lib_TestSuite/Common/JTest/src/jtest_dump_str_segments.c ****  *
   6:../lib_shared/Drivers/CMSIS/DSP/DSP_Lib_TestSuite/Common/JTest/src/jtest_dump_str_segments.c ****  *  The JTEST_FW.str_buffer contains more characters than the Keil framework can
   7:../lib_shared/Drivers/CMSIS/DSP/DSP_Lib_TestSuite/Common/JTest/src/jtest_dump_str_segments.c ****  *  dump at once. This function dumps them in blocks.
   8:../lib_shared/Drivers/CMSIS/DSP/DSP_Lib_TestSuite/Common/JTest/src/jtest_dump_str_segments.c ****  */
   9:../lib_shared/Drivers/CMSIS/DSP/DSP_Lib_TestSuite/Common/JTest/src/jtest_dump_str_segments.c **** void jtest_dump_str_segments(void)
  10:../lib_shared/Drivers/CMSIS/DSP/DSP_Lib_TestSuite/Common/JTest/src/jtest_dump_str_segments.c **** {
  30              		.loc 1 10 1 view -0
  31              		.cfi_startproc
  32              		@ args = 0, pretend = 0, frame = 0
  33              		@ frame_needed = 0, uses_anonymous_args = 0
  11:../lib_shared/Drivers/CMSIS/DSP/DSP_Lib_TestSuite/Common/JTest/src/jtest_dump_str_segments.c ****     uint32_t seg_idx      = 0;
  34              		.loc 1 11 5 view .LVU1
  35              	.LVL0:
  12:../lib_shared/Drivers/CMSIS/DSP/DSP_Lib_TestSuite/Common/JTest/src/jtest_dump_str_segments.c ****     uint32_t memmove_idx = 0;
  36              		.loc 1 12 5 view .LVU2
  13:../lib_shared/Drivers/CMSIS/DSP/DSP_Lib_TestSuite/Common/JTest/src/jtest_dump_str_segments.c ****     uint32_t seg_cnt  =
  37              		.loc 1 13 5 view .LVU3
  10:../lib_shared/Drivers/CMSIS/DSP/DSP_Lib_TestSuite/Common/JTest/src/jtest_dump_str_segments.c ****     uint32_t seg_idx      = 0;
  38              		.loc 1 10 1 is_stmt 0 view .LVU4
  39 0000 2DE9F843 		push	{r3, r4, r5, r6, r7, r8, r9, lr}
  40              	.LCFI0:
  41              		.cfi_def_cfa_offset 32
  42              		.cfi_offset 3, -32
  43              		.cfi_offset 4, -28
  44              		.cfi_offset 5, -24
ARM GAS  /tmp/cc6Ukz8d.s 			page 2


  45              		.cfi_offset 6, -20
  46              		.cfi_offset 7, -16
  47              		.cfi_offset 8, -12
  48              		.cfi_offset 9, -8
  49              		.cfi_offset 14, -4
  14:../lib_shared/Drivers/CMSIS/DSP/DSP_Lib_TestSuite/Common/JTest/src/jtest_dump_str_segments.c ****         (strlen(JTEST_FW.str_buffer) / JTEST_STR_MAX_OUTPUT_SIZE) + 1;
  50              		.loc 1 14 25 view .LVU5
  51 0004 184E     		ldr	r6, .L16
  52 0006 306A     		ldr	r0, [r6, #32]
  53              		.loc 1 14 10 view .LVU6
  54 0008 FFF7FEFF 		bl	strlen
  55              	.LVL1:
  56              		.loc 1 14 38 view .LVU7
  57 000c C709     		lsrs	r7, r0, #7
  58 000e 07F1FF38 		add	r8, r7, #-1
  59 0012 012F     		cmp	r7, #1
  60 0014 94BF     		ite	ls
  61 0016 A8EB0708 		subls	r8, r8, r7
  62 001a 08F1FF38 		addhi	r8, r8, #-1
  13:../lib_shared/Drivers/CMSIS/DSP/DSP_Lib_TestSuite/Common/JTest/src/jtest_dump_str_segments.c ****     uint32_t seg_cnt  =
  63              		.loc 1 13 14 view .LVU8
  64 001e 07F10109 		add	r9, r7, #1
  65              	.LVL2:
  15:../lib_shared/Drivers/CMSIS/DSP/DSP_Lib_TestSuite/Common/JTest/src/jtest_dump_str_segments.c **** 
  16:../lib_shared/Drivers/CMSIS/DSP/DSP_Lib_TestSuite/Common/JTest/src/jtest_dump_str_segments.c ****     for( seg_idx = 0; seg_idx < seg_cnt; ++seg_idx)
  66              		.loc 1 16 5 is_stmt 1 view .LVU9
  67              		.loc 1 16 23 view .LVU10
  13:../lib_shared/Drivers/CMSIS/DSP/DSP_Lib_TestSuite/Common/JTest/src/jtest_dump_str_segments.c ****         (strlen(JTEST_FW.str_buffer) / JTEST_STR_MAX_OUTPUT_SIZE) + 1;
  68              		.loc 1 13 14 is_stmt 0 view .LVU11
  69 0022 3C46     		mov	r4, r7
  70              	.LVL3:
  71              	.L3:
  17:../lib_shared/Drivers/CMSIS/DSP/DSP_Lib_TestSuite/Common/JTest/src/jtest_dump_str_segments.c ****     {
  18:../lib_shared/Drivers/CMSIS/DSP/DSP_Lib_TestSuite/Common/JTest/src/jtest_dump_str_segments.c ****         JTEST_TRIGGER_ACTION(dump_str);
  72              		.loc 1 18 9 is_stmt 1 view .LVU12
  73              		.loc 1 18 9 view .LVU13
  74 0024 FFF7FEFF 		bl	dump_str
  75              	.LVL4:
  76              		.loc 1 18 9 view .LVU14
  19:../lib_shared/Drivers/CMSIS/DSP/DSP_Lib_TestSuite/Common/JTest/src/jtest_dump_str_segments.c **** 
  20:../lib_shared/Drivers/CMSIS/DSP/DSP_Lib_TestSuite/Common/JTest/src/jtest_dump_str_segments.c ****         if (seg_idx < JTEST_STR_MAX_OUTPUT_SEGMENTS)
  77              		.loc 1 20 9 view .LVU15
  21:../lib_shared/Drivers/CMSIS/DSP/DSP_Lib_TestSuite/Common/JTest/src/jtest_dump_str_segments.c ****         {
  22:../lib_shared/Drivers/CMSIS/DSP/DSP_Lib_TestSuite/Common/JTest/src/jtest_dump_str_segments.c ****             memmove_idx = 0;
  23:../lib_shared/Drivers/CMSIS/DSP/DSP_Lib_TestSuite/Common/JTest/src/jtest_dump_str_segments.c ****             while (memmove_idx < (seg_cnt - seg_idx -1) )
  78              		.loc 1 23 19 view .LVU16
  22:../lib_shared/Drivers/CMSIS/DSP/DSP_Lib_TestSuite/Common/JTest/src/jtest_dump_str_segments.c ****             while (memmove_idx < (seg_cnt - seg_idx -1) )
  79              		.loc 1 22 25 is_stmt 0 view .LVU17
  80 0028 0025     		movs	r5, #0
  81              		.loc 1 23 19 view .LVU18
  82 002a 6CB1     		cbz	r4, .L7
  83              	.LVL5:
  84              	.L2:
  24:../lib_shared/Drivers/CMSIS/DSP/DSP_Lib_TestSuite/Common/JTest/src/jtest_dump_str_segments.c ****             {
  25:../lib_shared/Drivers/CMSIS/DSP/DSP_Lib_TestSuite/Common/JTest/src/jtest_dump_str_segments.c ****                 memmove(
  85              		.loc 1 25 17 is_stmt 1 view .LVU19
  86 002c EB01     		lsls	r3, r5, #7
ARM GAS  /tmp/cc6Ukz8d.s 			page 3


  26:../lib_shared/Drivers/CMSIS/DSP/DSP_Lib_TestSuite/Common/JTest/src/jtest_dump_str_segments.c ****                     JTEST_FW.str_buffer+
  87              		.loc 1 26 29 is_stmt 0 view .LVU20
  88 002e 306A     		ldr	r0, [r6, #32]
  27:../lib_shared/Drivers/CMSIS/DSP/DSP_Lib_TestSuite/Common/JTest/src/jtest_dump_str_segments.c ****                     (memmove_idx* JTEST_STR_MAX_OUTPUT_SIZE),
  28:../lib_shared/Drivers/CMSIS/DSP/DSP_Lib_TestSuite/Common/JTest/src/jtest_dump_str_segments.c ****                     JTEST_FW.str_buffer+
  89              		.loc 1 28 29 view .LVU21
  90 0030 316A     		ldr	r1, [r6, #32]
  91              		.loc 1 28 40 view .LVU22
  92 0032 03F18002 		add	r2, r3, #128
  25:../lib_shared/Drivers/CMSIS/DSP/DSP_Lib_TestSuite/Common/JTest/src/jtest_dump_str_segments.c ****                     JTEST_FW.str_buffer+
  93              		.loc 1 25 17 view .LVU23
  94 0036 1144     		add	r1, r1, r2
  95 0038 1844     		add	r0, r0, r3
  29:../lib_shared/Drivers/CMSIS/DSP/DSP_Lib_TestSuite/Common/JTest/src/jtest_dump_str_segments.c ****                     ((memmove_idx+1)*JTEST_STR_MAX_OUTPUT_SIZE),
  96              		.loc 1 29 34 view .LVU24
  97 003a 0135     		adds	r5, r5, #1
  98              	.LVL6:
  25:../lib_shared/Drivers/CMSIS/DSP/DSP_Lib_TestSuite/Common/JTest/src/jtest_dump_str_segments.c ****                     JTEST_FW.str_buffer+
  99              		.loc 1 25 17 view .LVU25
 100 003c 4FF48072 		mov	r2, #256
 101 0040 FFF7FEFF 		bl	memmove
 102              	.LVL7:
  30:../lib_shared/Drivers/CMSIS/DSP/DSP_Lib_TestSuite/Common/JTest/src/jtest_dump_str_segments.c ****                     JTEST_BUF_SIZE);
  31:../lib_shared/Drivers/CMSIS/DSP/DSP_Lib_TestSuite/Common/JTest/src/jtest_dump_str_segments.c ****                 ++memmove_idx;
 103              		.loc 1 31 17 is_stmt 1 view .LVU26
  23:../lib_shared/Drivers/CMSIS/DSP/DSP_Lib_TestSuite/Common/JTest/src/jtest_dump_str_segments.c ****             {
 104              		.loc 1 23 19 view .LVU27
 105 0044 A542     		cmp	r5, r4
 106 0046 F1D1     		bne	.L2
 107              	.LVL8:
 108              	.L7:
  16:../lib_shared/Drivers/CMSIS/DSP/DSP_Lib_TestSuite/Common/JTest/src/jtest_dump_str_segments.c ****     {
 109              		.loc 1 16 42 view .LVU28
 110 0048 A9EB0405 		sub	r5, r9, r4
 111              	.LVL9:
  16:../lib_shared/Drivers/CMSIS/DSP/DSP_Lib_TestSuite/Common/JTest/src/jtest_dump_str_segments.c ****     {
 112              		.loc 1 16 23 view .LVU29
 113 004c 013C     		subs	r4, r4, #1
  16:../lib_shared/Drivers/CMSIS/DSP/DSP_Lib_TestSuite/Common/JTest/src/jtest_dump_str_segments.c ****     {
 114              		.loc 1 16 5 is_stmt 0 view .LVU30
 115 004e 4445     		cmp	r4, r8
 116 0050 E8D1     		bne	.L3
 117 0052 A945     		cmp	r9, r5
 118 0054 05D9     		bls	.L1
 119              	.LVL10:
 120              	.L5:
  18:../lib_shared/Drivers/CMSIS/DSP/DSP_Lib_TestSuite/Common/JTest/src/jtest_dump_str_segments.c **** 
 121              		.loc 1 18 9 is_stmt 1 view .LVU31
  18:../lib_shared/Drivers/CMSIS/DSP/DSP_Lib_TestSuite/Common/JTest/src/jtest_dump_str_segments.c **** 
 122              		.loc 1 18 9 view .LVU32
 123 0056 FFF7FEFF 		bl	dump_str
 124              	.LVL11:
  18:../lib_shared/Drivers/CMSIS/DSP/DSP_Lib_TestSuite/Common/JTest/src/jtest_dump_str_segments.c **** 
 125              		.loc 1 18 9 view .LVU33
  20:../lib_shared/Drivers/CMSIS/DSP/DSP_Lib_TestSuite/Common/JTest/src/jtest_dump_str_segments.c ****         {
 126              		.loc 1 20 9 view .LVU34
  16:../lib_shared/Drivers/CMSIS/DSP/DSP_Lib_TestSuite/Common/JTest/src/jtest_dump_str_segments.c ****     {
ARM GAS  /tmp/cc6Ukz8d.s 			page 4


 127              		.loc 1 16 42 view .LVU35
  16:../lib_shared/Drivers/CMSIS/DSP/DSP_Lib_TestSuite/Common/JTest/src/jtest_dump_str_segments.c ****     {
 128              		.loc 1 16 23 view .LVU36
  16:../lib_shared/Drivers/CMSIS/DSP/DSP_Lib_TestSuite/Common/JTest/src/jtest_dump_str_segments.c ****     {
 129              		.loc 1 16 5 is_stmt 0 view .LVU37
 130 005a AF42     		cmp	r7, r5
 131 005c 05F10105 		add	r5, r5, #1
 132              	.LVL12:
  16:../lib_shared/Drivers/CMSIS/DSP/DSP_Lib_TestSuite/Common/JTest/src/jtest_dump_str_segments.c ****     {
 133              		.loc 1 16 5 view .LVU38
 134 0060 F9D1     		bne	.L5
 135              	.LVL13:
 136              	.L1:
  32:../lib_shared/Drivers/CMSIS/DSP/DSP_Lib_TestSuite/Common/JTest/src/jtest_dump_str_segments.c ****             }
  33:../lib_shared/Drivers/CMSIS/DSP/DSP_Lib_TestSuite/Common/JTest/src/jtest_dump_str_segments.c ****         }
  34:../lib_shared/Drivers/CMSIS/DSP/DSP_Lib_TestSuite/Common/JTest/src/jtest_dump_str_segments.c ****     }
  35:../lib_shared/Drivers/CMSIS/DSP/DSP_Lib_TestSuite/Common/JTest/src/jtest_dump_str_segments.c ****     return;
  36:../lib_shared/Drivers/CMSIS/DSP/DSP_Lib_TestSuite/Common/JTest/src/jtest_dump_str_segments.c **** }
 137              		.loc 1 36 1 view .LVU39
 138 0062 BDE8F883 		pop	{r3, r4, r5, r6, r7, r8, r9, pc}
 139              	.LVL14:
 140              	.L17:
 141              		.loc 1 36 1 view .LVU40
 142 0066 00BF     		.align	2
 143              	.L16:
 144 0068 00000000 		.word	JTEST_FW
 145              		.cfi_endproc
 146              	.LFE3:
 148              		.text
 149              	.Letext0:
 150              		.file 2 "/usr/lib/gcc/arm-none-eabi/9.2.1/include/stdint.h"
 151              		.file 3 "/usr/lib/gcc/arm-none-eabi/9.2.1/include/stddef.h"
 152              		.file 4 "/usr/include/newlib/sys/_types.h"
 153              		.file 5 "/usr/include/newlib/sys/reent.h"
 154              		.file 6 "/usr/include/newlib/sys/lock.h"
 155              		.file 7 "../lib_shared/Drivers/CMSIS/DSP/DSP_Lib_TestSuite/Common/JTest/inc/jtest_group.h"
 156              		.file 8 "../lib_shared/Drivers/CMSIS/DSP/DSP_Lib_TestSuite/Common/JTest/inc/jtest_fw.h"
 157              		.file 9 "/usr/include/newlib/string.h"
ARM GAS  /tmp/cc6Ukz8d.s 			page 5

