ARM GAS  /tmp/ccfqX6fz.s 			page 1


   1              		.cpu cortex-m4
   2              		.eabi_attribute 27, 1
   3              		.eabi_attribute 28, 1
   4              		.eabi_attribute 20, 1
   5              		.eabi_attribute 21, 1
   6              		.eabi_attribute 23, 3
   7              		.eabi_attribute 24, 1
   8              		.eabi_attribute 25, 1
   9              		.eabi_attribute 26, 1
  10              		.eabi_attribute 30, 2
  11              		.eabi_attribute 34, 1
  12              		.eabi_attribute 18, 4
  13              		.file	"jtest_trigger_action.c"
  14              		.text
  15              	.Ltext0:
  16              		.cfi_sections	.debug_frame
  17              		.section	.text.test_start,"ax",%progbits
  18              		.align	1
  19              		.p2align 2,,3
  20              		.global	test_start
  21              		.arch armv7e-m
  22              		.syntax unified
  23              		.thumb
  24              		.thumb_func
  25              		.fpu fpv4-sp-d16
  27              	test_start:
  28              	.LFB3:
  29              		.file 1 "../lib_shared/Drivers/CMSIS/DSP/DSP_Lib_TestSuite/Common/JTest/src/jtest_trigger_action.c
   1:../lib_shared/Drivers/CMSIS/DSP/DSP_Lib_TestSuite/Common/JTest/src/jtest_trigger_action.c **** 
   2:../lib_shared/Drivers/CMSIS/DSP/DSP_Lib_TestSuite/Common/JTest/src/jtest_trigger_action.c **** #include "jtest_fw.h"
   3:../lib_shared/Drivers/CMSIS/DSP/DSP_Lib_TestSuite/Common/JTest/src/jtest_trigger_action.c **** 
   4:../lib_shared/Drivers/CMSIS/DSP/DSP_Lib_TestSuite/Common/JTest/src/jtest_trigger_action.c **** void test_start    (void) {
  30              		.loc 1 4 27 view -0
  31              		.cfi_startproc
  32              		@ args = 0, pretend = 0, frame = 0
  33              		@ frame_needed = 0, uses_anonymous_args = 0
  34              		@ link register save eliminated.
   5:../lib_shared/Drivers/CMSIS/DSP/DSP_Lib_TestSuite/Common/JTest/src/jtest_trigger_action.c **** //  ;
   6:../lib_shared/Drivers/CMSIS/DSP/DSP_Lib_TestSuite/Common/JTest/src/jtest_trigger_action.c ****   JTEST_FW.test_start++;
  35              		.loc 1 6 3 view .LVU1
  36              		.loc 1 6 11 is_stmt 0 view .LVU2
  37 0000 024A     		ldr	r2, .L3
  38 0002 1368     		ldr	r3, [r2]
  39              		.loc 1 6 22 view .LVU3
  40 0004 0133     		adds	r3, r3, #1
  41 0006 1360     		str	r3, [r2]
   7:../lib_shared/Drivers/CMSIS/DSP/DSP_Lib_TestSuite/Common/JTest/src/jtest_trigger_action.c **** }
  42              		.loc 1 7 1 view .LVU4
  43 0008 7047     		bx	lr
  44              	.L4:
  45 000a 00BF     		.align	2
  46              	.L3:
  47 000c 00000000 		.word	JTEST_FW
  48              		.cfi_endproc
  49              	.LFE3:
  51              		.section	.text.test_end,"ax",%progbits
  52              		.align	1
ARM GAS  /tmp/ccfqX6fz.s 			page 2


  53              		.p2align 2,,3
  54              		.global	test_end
  55              		.syntax unified
  56              		.thumb
  57              		.thumb_func
  58              		.fpu fpv4-sp-d16
  60              	test_end:
  61              	.LFB4:
   8:../lib_shared/Drivers/CMSIS/DSP/DSP_Lib_TestSuite/Common/JTest/src/jtest_trigger_action.c **** 
   9:../lib_shared/Drivers/CMSIS/DSP/DSP_Lib_TestSuite/Common/JTest/src/jtest_trigger_action.c **** void test_end      (void) {
  62              		.loc 1 9 27 is_stmt 1 view -0
  63              		.cfi_startproc
  64              		@ args = 0, pretend = 0, frame = 0
  65              		@ frame_needed = 0, uses_anonymous_args = 0
  66              		@ link register save eliminated.
  10:../lib_shared/Drivers/CMSIS/DSP/DSP_Lib_TestSuite/Common/JTest/src/jtest_trigger_action.c **** //  ;
  11:../lib_shared/Drivers/CMSIS/DSP/DSP_Lib_TestSuite/Common/JTest/src/jtest_trigger_action.c ****   JTEST_FW.test_end++;
  67              		.loc 1 11 3 view .LVU6
  68              		.loc 1 11 11 is_stmt 0 view .LVU7
  69 0000 024A     		ldr	r2, .L6
  70 0002 5368     		ldr	r3, [r2, #4]
  71              		.loc 1 11 20 view .LVU8
  72 0004 0133     		adds	r3, r3, #1
  73 0006 5360     		str	r3, [r2, #4]
  12:../lib_shared/Drivers/CMSIS/DSP/DSP_Lib_TestSuite/Common/JTest/src/jtest_trigger_action.c **** }
  74              		.loc 1 12 1 view .LVU9
  75 0008 7047     		bx	lr
  76              	.L7:
  77 000a 00BF     		.align	2
  78              	.L6:
  79 000c 00000000 		.word	JTEST_FW
  80              		.cfi_endproc
  81              	.LFE4:
  83              		.section	.text.group_start,"ax",%progbits
  84              		.align	1
  85              		.p2align 2,,3
  86              		.global	group_start
  87              		.syntax unified
  88              		.thumb
  89              		.thumb_func
  90              		.fpu fpv4-sp-d16
  92              	group_start:
  93              	.LFB5:
  13:../lib_shared/Drivers/CMSIS/DSP/DSP_Lib_TestSuite/Common/JTest/src/jtest_trigger_action.c **** 
  14:../lib_shared/Drivers/CMSIS/DSP/DSP_Lib_TestSuite/Common/JTest/src/jtest_trigger_action.c **** void group_start   (void) {
  94              		.loc 1 14 27 is_stmt 1 view -0
  95              		.cfi_startproc
  96              		@ args = 0, pretend = 0, frame = 0
  97              		@ frame_needed = 0, uses_anonymous_args = 0
  98              		@ link register save eliminated.
  15:../lib_shared/Drivers/CMSIS/DSP/DSP_Lib_TestSuite/Common/JTest/src/jtest_trigger_action.c **** //  ;
  16:../lib_shared/Drivers/CMSIS/DSP/DSP_Lib_TestSuite/Common/JTest/src/jtest_trigger_action.c ****   JTEST_FW.group_start++;
  99              		.loc 1 16 3 view .LVU11
 100              		.loc 1 16 11 is_stmt 0 view .LVU12
 101 0000 024A     		ldr	r2, .L9
 102 0002 9368     		ldr	r3, [r2, #8]
 103              		.loc 1 16 23 view .LVU13
ARM GAS  /tmp/ccfqX6fz.s 			page 3


 104 0004 0133     		adds	r3, r3, #1
 105 0006 9360     		str	r3, [r2, #8]
  17:../lib_shared/Drivers/CMSIS/DSP/DSP_Lib_TestSuite/Common/JTest/src/jtest_trigger_action.c **** }
 106              		.loc 1 17 1 view .LVU14
 107 0008 7047     		bx	lr
 108              	.L10:
 109 000a 00BF     		.align	2
 110              	.L9:
 111 000c 00000000 		.word	JTEST_FW
 112              		.cfi_endproc
 113              	.LFE5:
 115              		.section	.text.group_end,"ax",%progbits
 116              		.align	1
 117              		.p2align 2,,3
 118              		.global	group_end
 119              		.syntax unified
 120              		.thumb
 121              		.thumb_func
 122              		.fpu fpv4-sp-d16
 124              	group_end:
 125              	.LFB6:
  18:../lib_shared/Drivers/CMSIS/DSP/DSP_Lib_TestSuite/Common/JTest/src/jtest_trigger_action.c **** 
  19:../lib_shared/Drivers/CMSIS/DSP/DSP_Lib_TestSuite/Common/JTest/src/jtest_trigger_action.c **** void group_end     (void) {
 126              		.loc 1 19 27 is_stmt 1 view -0
 127              		.cfi_startproc
 128              		@ args = 0, pretend = 0, frame = 0
 129              		@ frame_needed = 0, uses_anonymous_args = 0
 130              		@ link register save eliminated.
  20:../lib_shared/Drivers/CMSIS/DSP/DSP_Lib_TestSuite/Common/JTest/src/jtest_trigger_action.c **** //  ;
  21:../lib_shared/Drivers/CMSIS/DSP/DSP_Lib_TestSuite/Common/JTest/src/jtest_trigger_action.c ****   JTEST_FW.group_end++;
 131              		.loc 1 21 3 view .LVU16
 132              		.loc 1 21 11 is_stmt 0 view .LVU17
 133 0000 024A     		ldr	r2, .L12
 134 0002 D368     		ldr	r3, [r2, #12]
 135              		.loc 1 21 21 view .LVU18
 136 0004 0133     		adds	r3, r3, #1
 137 0006 D360     		str	r3, [r2, #12]
  22:../lib_shared/Drivers/CMSIS/DSP/DSP_Lib_TestSuite/Common/JTest/src/jtest_trigger_action.c **** }
 138              		.loc 1 22 1 view .LVU19
 139 0008 7047     		bx	lr
 140              	.L13:
 141 000a 00BF     		.align	2
 142              	.L12:
 143 000c 00000000 		.word	JTEST_FW
 144              		.cfi_endproc
 145              	.LFE6:
 147              		.section	.text.dump_str,"ax",%progbits
 148              		.align	1
 149              		.p2align 2,,3
 150              		.global	dump_str
 151              		.syntax unified
 152              		.thumb
 153              		.thumb_func
 154              		.fpu fpv4-sp-d16
 156              	dump_str:
 157              	.LFB7:
  23:../lib_shared/Drivers/CMSIS/DSP/DSP_Lib_TestSuite/Common/JTest/src/jtest_trigger_action.c **** 
ARM GAS  /tmp/ccfqX6fz.s 			page 4


  24:../lib_shared/Drivers/CMSIS/DSP/DSP_Lib_TestSuite/Common/JTest/src/jtest_trigger_action.c **** void dump_str      (void) {
 158              		.loc 1 24 27 is_stmt 1 view -0
 159              		.cfi_startproc
 160              		@ args = 0, pretend = 0, frame = 0
 161              		@ frame_needed = 0, uses_anonymous_args = 0
 162              		@ link register save eliminated.
  25:../lib_shared/Drivers/CMSIS/DSP/DSP_Lib_TestSuite/Common/JTest/src/jtest_trigger_action.c **** //  ;
  26:../lib_shared/Drivers/CMSIS/DSP/DSP_Lib_TestSuite/Common/JTest/src/jtest_trigger_action.c ****   JTEST_FW.dump_str++;
 163              		.loc 1 26 3 view .LVU21
 164              		.loc 1 26 11 is_stmt 0 view .LVU22
 165 0000 024A     		ldr	r2, .L15
 166 0002 1369     		ldr	r3, [r2, #16]
 167              		.loc 1 26 20 view .LVU23
 168 0004 0133     		adds	r3, r3, #1
 169 0006 1361     		str	r3, [r2, #16]
  27:../lib_shared/Drivers/CMSIS/DSP/DSP_Lib_TestSuite/Common/JTest/src/jtest_trigger_action.c **** }
 170              		.loc 1 27 1 view .LVU24
 171 0008 7047     		bx	lr
 172              	.L16:
 173 000a 00BF     		.align	2
 174              	.L15:
 175 000c 00000000 		.word	JTEST_FW
 176              		.cfi_endproc
 177              	.LFE7:
 179              		.section	.text.dump_data,"ax",%progbits
 180              		.align	1
 181              		.p2align 2,,3
 182              		.global	dump_data
 183              		.syntax unified
 184              		.thumb
 185              		.thumb_func
 186              		.fpu fpv4-sp-d16
 188              	dump_data:
 189              	.LFB8:
  28:../lib_shared/Drivers/CMSIS/DSP/DSP_Lib_TestSuite/Common/JTest/src/jtest_trigger_action.c **** 
  29:../lib_shared/Drivers/CMSIS/DSP/DSP_Lib_TestSuite/Common/JTest/src/jtest_trigger_action.c **** void dump_data     (void) {
 190              		.loc 1 29 27 is_stmt 1 view -0
 191              		.cfi_startproc
 192              		@ args = 0, pretend = 0, frame = 0
 193              		@ frame_needed = 0, uses_anonymous_args = 0
 194              		@ link register save eliminated.
  30:../lib_shared/Drivers/CMSIS/DSP/DSP_Lib_TestSuite/Common/JTest/src/jtest_trigger_action.c **** //  ;
  31:../lib_shared/Drivers/CMSIS/DSP/DSP_Lib_TestSuite/Common/JTest/src/jtest_trigger_action.c ****   JTEST_FW.dump_data++;
 195              		.loc 1 31 3 view .LVU26
 196              		.loc 1 31 11 is_stmt 0 view .LVU27
 197 0000 024A     		ldr	r2, .L18
 198 0002 5369     		ldr	r3, [r2, #20]
 199              		.loc 1 31 21 view .LVU28
 200 0004 0133     		adds	r3, r3, #1
 201 0006 5361     		str	r3, [r2, #20]
  32:../lib_shared/Drivers/CMSIS/DSP/DSP_Lib_TestSuite/Common/JTest/src/jtest_trigger_action.c **** }
 202              		.loc 1 32 1 view .LVU29
 203 0008 7047     		bx	lr
 204              	.L19:
 205 000a 00BF     		.align	2
 206              	.L18:
 207 000c 00000000 		.word	JTEST_FW
ARM GAS  /tmp/ccfqX6fz.s 			page 5


 208              		.cfi_endproc
 209              	.LFE8:
 211              		.section	.text.exit_fw,"ax",%progbits
 212              		.align	1
 213              		.p2align 2,,3
 214              		.global	exit_fw
 215              		.syntax unified
 216              		.thumb
 217              		.thumb_func
 218              		.fpu fpv4-sp-d16
 220              	exit_fw:
 221              	.LFB9:
  33:../lib_shared/Drivers/CMSIS/DSP/DSP_Lib_TestSuite/Common/JTest/src/jtest_trigger_action.c **** 
  34:../lib_shared/Drivers/CMSIS/DSP/DSP_Lib_TestSuite/Common/JTest/src/jtest_trigger_action.c **** void exit_fw       (void) {
 222              		.loc 1 34 27 is_stmt 1 view -0
 223              		.cfi_startproc
 224              		@ args = 0, pretend = 0, frame = 0
 225              		@ frame_needed = 0, uses_anonymous_args = 0
 226              		@ link register save eliminated.
  35:../lib_shared/Drivers/CMSIS/DSP/DSP_Lib_TestSuite/Common/JTest/src/jtest_trigger_action.c **** //  ;
  36:../lib_shared/Drivers/CMSIS/DSP/DSP_Lib_TestSuite/Common/JTest/src/jtest_trigger_action.c ****   JTEST_FW.exit_fw++;
 227              		.loc 1 36 3 view .LVU31
 228              		.loc 1 36 11 is_stmt 0 view .LVU32
 229 0000 024A     		ldr	r2, .L21
 230 0002 9369     		ldr	r3, [r2, #24]
 231              		.loc 1 36 19 view .LVU33
 232 0004 0133     		adds	r3, r3, #1
 233 0006 9361     		str	r3, [r2, #24]
  37:../lib_shared/Drivers/CMSIS/DSP/DSP_Lib_TestSuite/Common/JTest/src/jtest_trigger_action.c **** }
 234              		.loc 1 37 1 view .LVU34
 235 0008 7047     		bx	lr
 236              	.L22:
 237 000a 00BF     		.align	2
 238              	.L21:
 239 000c 00000000 		.word	JTEST_FW
 240              		.cfi_endproc
 241              	.LFE9:
 243              		.text
 244              	.Letext0:
 245              		.file 2 "/usr/lib/gcc/arm-none-eabi/9.2.1/include/stdint.h"
 246              		.file 3 "/usr/lib/gcc/arm-none-eabi/9.2.1/include/stddef.h"
 247              		.file 4 "/usr/include/newlib/sys/_types.h"
 248              		.file 5 "/usr/include/newlib/sys/reent.h"
 249              		.file 6 "/usr/include/newlib/sys/lock.h"
 250              		.file 7 "../lib_shared/Drivers/CMSIS/DSP/DSP_Lib_TestSuite/Common/JTest/inc/jtest_group.h"
 251              		.file 8 "../lib_shared/Drivers/CMSIS/DSP/DSP_Lib_TestSuite/Common/JTest/inc/jtest_fw.h"
ARM GAS  /tmp/ccfqX6fz.s 			page 6

