ARM GAS  /tmp/ccZbFAOs.s 			page 1


   1              		.cpu cortex-m4
   2              		.eabi_attribute 27, 1
   3              		.eabi_attribute 28, 1
   4              		.eabi_attribute 20, 1
   5              		.eabi_attribute 21, 1
   6              		.eabi_attribute 23, 3
   7              		.eabi_attribute 24, 1
   8              		.eabi_attribute 25, 1
   9              		.eabi_attribute 26, 1
  10              		.eabi_attribute 30, 2
  11              		.eabi_attribute 34, 1
  12              		.eabi_attribute 18, 4
  13              		.file	"stm32f4xx_it.c"
  14              		.text
  15              	.Ltext0:
  16              		.cfi_sections	.debug_frame
  17              		.section	.text.NMI_Handler,"ax",%progbits
  18              		.align	1
  19              		.p2align 2,,3
  20              		.global	NMI_Handler
  21              		.arch armv7e-m
  22              		.syntax unified
  23              		.thumb
  24              		.thumb_func
  25              		.fpu fpv4-sp-d16
  27              	NMI_Handler:
  28              	.LFB130:
  29              		.file 1 "../lib_shared/Core/Src/stm32f4xx_it.c"
   1:../lib_shared/Core/Src/stm32f4xx_it.c **** /* USER CODE BEGIN Header */
   2:../lib_shared/Core/Src/stm32f4xx_it.c **** /**
   3:../lib_shared/Core/Src/stm32f4xx_it.c ****   ******************************************************************************
   4:../lib_shared/Core/Src/stm32f4xx_it.c ****   * @file    stm32f4xx_it.c
   5:../lib_shared/Core/Src/stm32f4xx_it.c ****   * @brief   Interrupt Service Routines.
   6:../lib_shared/Core/Src/stm32f4xx_it.c ****   ******************************************************************************
   7:../lib_shared/Core/Src/stm32f4xx_it.c ****   * @attention
   8:../lib_shared/Core/Src/stm32f4xx_it.c ****   *
   9:../lib_shared/Core/Src/stm32f4xx_it.c ****   * <h2><center>&copy; Copyright (c) 2019 STMicroelectronics.
  10:../lib_shared/Core/Src/stm32f4xx_it.c ****   * All rights reserved.</center></h2>
  11:../lib_shared/Core/Src/stm32f4xx_it.c ****   *
  12:../lib_shared/Core/Src/stm32f4xx_it.c ****   * This software component is licensed by ST under Ultimate Liberty license
  13:../lib_shared/Core/Src/stm32f4xx_it.c ****   * SLA0044, the "License"; You may not use this file except in compliance with
  14:../lib_shared/Core/Src/stm32f4xx_it.c ****   * the License. You may obtain a copy of the License at:
  15:../lib_shared/Core/Src/stm32f4xx_it.c ****   *                             www.st.com/SLA0044
  16:../lib_shared/Core/Src/stm32f4xx_it.c ****   *
  17:../lib_shared/Core/Src/stm32f4xx_it.c ****   ******************************************************************************
  18:../lib_shared/Core/Src/stm32f4xx_it.c ****   */
  19:../lib_shared/Core/Src/stm32f4xx_it.c **** /* USER CODE END Header */
  20:../lib_shared/Core/Src/stm32f4xx_it.c **** 
  21:../lib_shared/Core/Src/stm32f4xx_it.c **** /* Includes ------------------------------------------------------------------*/
  22:../lib_shared/Core/Src/stm32f4xx_it.c **** #include "main.h"
  23:../lib_shared/Core/Src/stm32f4xx_it.c **** #include "stm32f4xx_it.h"
  24:../lib_shared/Core/Src/stm32f4xx_it.c **** /* Private includes ----------------------------------------------------------*/
  25:../lib_shared/Core/Src/stm32f4xx_it.c **** /* USER CODE BEGIN Includes */
  26:../lib_shared/Core/Src/stm32f4xx_it.c **** /* USER CODE END Includes */
  27:../lib_shared/Core/Src/stm32f4xx_it.c **** 
  28:../lib_shared/Core/Src/stm32f4xx_it.c **** /* Private typedef -----------------------------------------------------------*/
  29:../lib_shared/Core/Src/stm32f4xx_it.c **** /* USER CODE BEGIN TD */
ARM GAS  /tmp/ccZbFAOs.s 			page 2


  30:../lib_shared/Core/Src/stm32f4xx_it.c **** 
  31:../lib_shared/Core/Src/stm32f4xx_it.c **** /* USER CODE END TD */
  32:../lib_shared/Core/Src/stm32f4xx_it.c **** 
  33:../lib_shared/Core/Src/stm32f4xx_it.c **** /* Private define ------------------------------------------------------------*/
  34:../lib_shared/Core/Src/stm32f4xx_it.c **** /* USER CODE BEGIN PD */
  35:../lib_shared/Core/Src/stm32f4xx_it.c ****  
  36:../lib_shared/Core/Src/stm32f4xx_it.c **** /* USER CODE END PD */
  37:../lib_shared/Core/Src/stm32f4xx_it.c **** 
  38:../lib_shared/Core/Src/stm32f4xx_it.c **** /* Private macro -------------------------------------------------------------*/
  39:../lib_shared/Core/Src/stm32f4xx_it.c **** /* USER CODE BEGIN PM */
  40:../lib_shared/Core/Src/stm32f4xx_it.c **** 
  41:../lib_shared/Core/Src/stm32f4xx_it.c **** /* USER CODE END PM */
  42:../lib_shared/Core/Src/stm32f4xx_it.c **** 
  43:../lib_shared/Core/Src/stm32f4xx_it.c **** /* Private variables ---------------------------------------------------------*/
  44:../lib_shared/Core/Src/stm32f4xx_it.c **** /* USER CODE BEGIN PV */
  45:../lib_shared/Core/Src/stm32f4xx_it.c **** 
  46:../lib_shared/Core/Src/stm32f4xx_it.c **** /* USER CODE END PV */
  47:../lib_shared/Core/Src/stm32f4xx_it.c **** 
  48:../lib_shared/Core/Src/stm32f4xx_it.c **** /* Private function prototypes -----------------------------------------------*/
  49:../lib_shared/Core/Src/stm32f4xx_it.c **** /* USER CODE BEGIN PFP */
  50:../lib_shared/Core/Src/stm32f4xx_it.c **** 
  51:../lib_shared/Core/Src/stm32f4xx_it.c **** /* USER CODE END PFP */
  52:../lib_shared/Core/Src/stm32f4xx_it.c **** 
  53:../lib_shared/Core/Src/stm32f4xx_it.c **** /* Private user code ---------------------------------------------------------*/
  54:../lib_shared/Core/Src/stm32f4xx_it.c **** /* USER CODE BEGIN 0 */
  55:../lib_shared/Core/Src/stm32f4xx_it.c **** 
  56:../lib_shared/Core/Src/stm32f4xx_it.c **** /* USER CODE END 0 */
  57:../lib_shared/Core/Src/stm32f4xx_it.c **** 
  58:../lib_shared/Core/Src/stm32f4xx_it.c **** /* External variables --------------------------------------------------------*/
  59:../lib_shared/Core/Src/stm32f4xx_it.c **** extern I2C_HandleTypeDef hi2c1;
  60:../lib_shared/Core/Src/stm32f4xx_it.c **** extern SD_HandleTypeDef hsd;
  61:../lib_shared/Core/Src/stm32f4xx_it.c **** extern USART_HandleTypeDef husart1;
  62:../lib_shared/Core/Src/stm32f4xx_it.c **** /* USER CODE BEGIN EV */
  63:../lib_shared/Core/Src/stm32f4xx_it.c **** 
  64:../lib_shared/Core/Src/stm32f4xx_it.c **** /* USER CODE END EV */
  65:../lib_shared/Core/Src/stm32f4xx_it.c **** 
  66:../lib_shared/Core/Src/stm32f4xx_it.c **** /******************************************************************************/
  67:../lib_shared/Core/Src/stm32f4xx_it.c **** /*           Cortex-M4 Processor Interruption and Exception Handlers          */ 
  68:../lib_shared/Core/Src/stm32f4xx_it.c **** /******************************************************************************/
  69:../lib_shared/Core/Src/stm32f4xx_it.c **** /**
  70:../lib_shared/Core/Src/stm32f4xx_it.c ****   * @brief This function handles Non maskable interrupt.
  71:../lib_shared/Core/Src/stm32f4xx_it.c ****   */
  72:../lib_shared/Core/Src/stm32f4xx_it.c **** void NMI_Handler(void)
  73:../lib_shared/Core/Src/stm32f4xx_it.c **** {
  30              		.loc 1 73 1 view -0
  31              		.cfi_startproc
  32              		@ args = 0, pretend = 0, frame = 0
  33              		@ frame_needed = 0, uses_anonymous_args = 0
  34              		@ link register save eliminated.
  74:../lib_shared/Core/Src/stm32f4xx_it.c ****   /* USER CODE BEGIN NonMaskableInt_IRQn 0 */
  75:../lib_shared/Core/Src/stm32f4xx_it.c **** 
  76:../lib_shared/Core/Src/stm32f4xx_it.c ****   /* USER CODE END NonMaskableInt_IRQn 0 */
  77:../lib_shared/Core/Src/stm32f4xx_it.c ****   /* USER CODE BEGIN NonMaskableInt_IRQn 1 */
  78:../lib_shared/Core/Src/stm32f4xx_it.c **** 
  79:../lib_shared/Core/Src/stm32f4xx_it.c ****   /* USER CODE END NonMaskableInt_IRQn 1 */
  80:../lib_shared/Core/Src/stm32f4xx_it.c **** }
  35              		.loc 1 80 1 view .LVU1
ARM GAS  /tmp/ccZbFAOs.s 			page 3


  36 0000 7047     		bx	lr
  37              		.cfi_endproc
  38              	.LFE130:
  40 0002 00BF     		.section	.text.HardFault_Handler,"ax",%progbits
  41              		.align	1
  42              		.p2align 2,,3
  43              		.global	HardFault_Handler
  44              		.syntax unified
  45              		.thumb
  46              		.thumb_func
  47              		.fpu fpv4-sp-d16
  49              	HardFault_Handler:
  50              	.LFB131:
  81:../lib_shared/Core/Src/stm32f4xx_it.c **** 
  82:../lib_shared/Core/Src/stm32f4xx_it.c **** /**
  83:../lib_shared/Core/Src/stm32f4xx_it.c ****   * @brief This function handles Hard fault interrupt.
  84:../lib_shared/Core/Src/stm32f4xx_it.c ****   */
  85:../lib_shared/Core/Src/stm32f4xx_it.c **** void HardFault_Handler(void)
  86:../lib_shared/Core/Src/stm32f4xx_it.c **** {
  51              		.loc 1 86 1 view -0
  52              		.cfi_startproc
  53              		@ Volatile: function does not return.
  54              		@ args = 0, pretend = 0, frame = 0
  55              		@ frame_needed = 0, uses_anonymous_args = 0
  56              		@ link register save eliminated.
  57              	.L4:
  87:../lib_shared/Core/Src/stm32f4xx_it.c ****   /* USER CODE BEGIN HardFault_IRQn 0 */
  88:../lib_shared/Core/Src/stm32f4xx_it.c **** 
  89:../lib_shared/Core/Src/stm32f4xx_it.c ****   /* USER CODE END HardFault_IRQn 0 */
  90:../lib_shared/Core/Src/stm32f4xx_it.c ****   while (1)
  58              		.loc 1 90 3 discriminator 1 view .LVU3
  91:../lib_shared/Core/Src/stm32f4xx_it.c ****   {
  92:../lib_shared/Core/Src/stm32f4xx_it.c ****     /* USER CODE BEGIN W1_HardFault_IRQn 0 */
  93:../lib_shared/Core/Src/stm32f4xx_it.c ****     /* USER CODE END W1_HardFault_IRQn 0 */
  94:../lib_shared/Core/Src/stm32f4xx_it.c ****   }
  59              		.loc 1 94 3 discriminator 1 view .LVU4
  90:../lib_shared/Core/Src/stm32f4xx_it.c ****   {
  60              		.loc 1 90 9 discriminator 1 view .LVU5
  61 0000 FEE7     		b	.L4
  62              		.cfi_endproc
  63              	.LFE131:
  65 0002 00BF     		.section	.text.MemManage_Handler,"ax",%progbits
  66              		.align	1
  67              		.p2align 2,,3
  68              		.global	MemManage_Handler
  69              		.syntax unified
  70              		.thumb
  71              		.thumb_func
  72              		.fpu fpv4-sp-d16
  74              	MemManage_Handler:
  75              	.LFB132:
  95:../lib_shared/Core/Src/stm32f4xx_it.c **** }
  96:../lib_shared/Core/Src/stm32f4xx_it.c **** 
  97:../lib_shared/Core/Src/stm32f4xx_it.c **** /**
  98:../lib_shared/Core/Src/stm32f4xx_it.c ****   * @brief This function handles Memory management fault.
  99:../lib_shared/Core/Src/stm32f4xx_it.c ****   */
 100:../lib_shared/Core/Src/stm32f4xx_it.c **** void MemManage_Handler(void)
ARM GAS  /tmp/ccZbFAOs.s 			page 4


 101:../lib_shared/Core/Src/stm32f4xx_it.c **** {
  76              		.loc 1 101 1 view -0
  77              		.cfi_startproc
  78              		@ Volatile: function does not return.
  79              		@ args = 0, pretend = 0, frame = 0
  80              		@ frame_needed = 0, uses_anonymous_args = 0
  81              		@ link register save eliminated.
  82              	.L6:
 102:../lib_shared/Core/Src/stm32f4xx_it.c ****   /* USER CODE BEGIN MemoryManagement_IRQn 0 */
 103:../lib_shared/Core/Src/stm32f4xx_it.c **** 
 104:../lib_shared/Core/Src/stm32f4xx_it.c ****   /* USER CODE END MemoryManagement_IRQn 0 */
 105:../lib_shared/Core/Src/stm32f4xx_it.c ****   while (1)
  83              		.loc 1 105 3 discriminator 1 view .LVU7
 106:../lib_shared/Core/Src/stm32f4xx_it.c ****   {
 107:../lib_shared/Core/Src/stm32f4xx_it.c ****     /* USER CODE BEGIN W1_MemoryManagement_IRQn 0 */
 108:../lib_shared/Core/Src/stm32f4xx_it.c ****     /* USER CODE END W1_MemoryManagement_IRQn 0 */
 109:../lib_shared/Core/Src/stm32f4xx_it.c ****   }
  84              		.loc 1 109 3 discriminator 1 view .LVU8
 105:../lib_shared/Core/Src/stm32f4xx_it.c ****   {
  85              		.loc 1 105 9 discriminator 1 view .LVU9
  86 0000 FEE7     		b	.L6
  87              		.cfi_endproc
  88              	.LFE132:
  90 0002 00BF     		.section	.text.BusFault_Handler,"ax",%progbits
  91              		.align	1
  92              		.p2align 2,,3
  93              		.global	BusFault_Handler
  94              		.syntax unified
  95              		.thumb
  96              		.thumb_func
  97              		.fpu fpv4-sp-d16
  99              	BusFault_Handler:
 100              	.LFB133:
 110:../lib_shared/Core/Src/stm32f4xx_it.c **** }
 111:../lib_shared/Core/Src/stm32f4xx_it.c **** 
 112:../lib_shared/Core/Src/stm32f4xx_it.c **** /**
 113:../lib_shared/Core/Src/stm32f4xx_it.c ****   * @brief This function handles Pre-fetch fault, memory access fault.
 114:../lib_shared/Core/Src/stm32f4xx_it.c ****   */
 115:../lib_shared/Core/Src/stm32f4xx_it.c **** void BusFault_Handler(void)
 116:../lib_shared/Core/Src/stm32f4xx_it.c **** {
 101              		.loc 1 116 1 view -0
 102              		.cfi_startproc
 103              		@ Volatile: function does not return.
 104              		@ args = 0, pretend = 0, frame = 0
 105              		@ frame_needed = 0, uses_anonymous_args = 0
 106              		@ link register save eliminated.
 107              	.L8:
 117:../lib_shared/Core/Src/stm32f4xx_it.c ****   /* USER CODE BEGIN BusFault_IRQn 0 */
 118:../lib_shared/Core/Src/stm32f4xx_it.c **** 
 119:../lib_shared/Core/Src/stm32f4xx_it.c ****   /* USER CODE END BusFault_IRQn 0 */
 120:../lib_shared/Core/Src/stm32f4xx_it.c ****   while (1)
 108              		.loc 1 120 3 discriminator 1 view .LVU11
 121:../lib_shared/Core/Src/stm32f4xx_it.c ****   {
 122:../lib_shared/Core/Src/stm32f4xx_it.c ****     /* USER CODE BEGIN W1_BusFault_IRQn 0 */
 123:../lib_shared/Core/Src/stm32f4xx_it.c ****     /* USER CODE END W1_BusFault_IRQn 0 */
 124:../lib_shared/Core/Src/stm32f4xx_it.c ****   }
 109              		.loc 1 124 3 discriminator 1 view .LVU12
ARM GAS  /tmp/ccZbFAOs.s 			page 5


 120:../lib_shared/Core/Src/stm32f4xx_it.c ****   {
 110              		.loc 1 120 9 discriminator 1 view .LVU13
 111 0000 FEE7     		b	.L8
 112              		.cfi_endproc
 113              	.LFE133:
 115 0002 00BF     		.section	.text.UsageFault_Handler,"ax",%progbits
 116              		.align	1
 117              		.p2align 2,,3
 118              		.global	UsageFault_Handler
 119              		.syntax unified
 120              		.thumb
 121              		.thumb_func
 122              		.fpu fpv4-sp-d16
 124              	UsageFault_Handler:
 125              	.LFB134:
 125:../lib_shared/Core/Src/stm32f4xx_it.c **** }
 126:../lib_shared/Core/Src/stm32f4xx_it.c **** 
 127:../lib_shared/Core/Src/stm32f4xx_it.c **** /**
 128:../lib_shared/Core/Src/stm32f4xx_it.c ****   * @brief This function handles Undefined instruction or illegal state.
 129:../lib_shared/Core/Src/stm32f4xx_it.c ****   */
 130:../lib_shared/Core/Src/stm32f4xx_it.c **** void UsageFault_Handler(void)
 131:../lib_shared/Core/Src/stm32f4xx_it.c **** {
 126              		.loc 1 131 1 view -0
 127              		.cfi_startproc
 128              		@ Volatile: function does not return.
 129              		@ args = 0, pretend = 0, frame = 0
 130              		@ frame_needed = 0, uses_anonymous_args = 0
 131              		@ link register save eliminated.
 132              	.L10:
 132:../lib_shared/Core/Src/stm32f4xx_it.c ****   /* USER CODE BEGIN UsageFault_IRQn 0 */
 133:../lib_shared/Core/Src/stm32f4xx_it.c **** 
 134:../lib_shared/Core/Src/stm32f4xx_it.c ****   /* USER CODE END UsageFault_IRQn 0 */
 135:../lib_shared/Core/Src/stm32f4xx_it.c ****   while (1)
 133              		.loc 1 135 3 discriminator 1 view .LVU15
 136:../lib_shared/Core/Src/stm32f4xx_it.c ****   {
 137:../lib_shared/Core/Src/stm32f4xx_it.c ****     /* USER CODE BEGIN W1_UsageFault_IRQn 0 */
 138:../lib_shared/Core/Src/stm32f4xx_it.c ****     /* USER CODE END W1_UsageFault_IRQn 0 */
 139:../lib_shared/Core/Src/stm32f4xx_it.c ****   }
 134              		.loc 1 139 3 discriminator 1 view .LVU16
 135:../lib_shared/Core/Src/stm32f4xx_it.c ****   {
 135              		.loc 1 135 9 discriminator 1 view .LVU17
 136 0000 FEE7     		b	.L10
 137              		.cfi_endproc
 138              	.LFE134:
 140 0002 00BF     		.section	.text.DebugMon_Handler,"ax",%progbits
 141              		.align	1
 142              		.p2align 2,,3
 143              		.global	DebugMon_Handler
 144              		.syntax unified
 145              		.thumb
 146              		.thumb_func
 147              		.fpu fpv4-sp-d16
 149              	DebugMon_Handler:
 150              	.LFB142:
 151              		.cfi_startproc
 152              		@ args = 0, pretend = 0, frame = 0
 153              		@ frame_needed = 0, uses_anonymous_args = 0
ARM GAS  /tmp/ccZbFAOs.s 			page 6


 154              		@ link register save eliminated.
 155 0000 7047     		bx	lr
 156              		.cfi_endproc
 157              	.LFE142:
 159 0002 00BF     		.section	.text.SysTick_Handler,"ax",%progbits
 160              		.align	1
 161              		.p2align 2,,3
 162              		.global	SysTick_Handler
 163              		.syntax unified
 164              		.thumb
 165              		.thumb_func
 166              		.fpu fpv4-sp-d16
 168              	SysTick_Handler:
 169              	.LFB136:
 140:../lib_shared/Core/Src/stm32f4xx_it.c **** }
 141:../lib_shared/Core/Src/stm32f4xx_it.c **** 
 142:../lib_shared/Core/Src/stm32f4xx_it.c **** /**
 143:../lib_shared/Core/Src/stm32f4xx_it.c ****   * @brief This function handles Debug monitor.
 144:../lib_shared/Core/Src/stm32f4xx_it.c ****   */
 145:../lib_shared/Core/Src/stm32f4xx_it.c **** void DebugMon_Handler(void)
 146:../lib_shared/Core/Src/stm32f4xx_it.c **** {
 147:../lib_shared/Core/Src/stm32f4xx_it.c ****   /* USER CODE BEGIN DebugMonitor_IRQn 0 */
 148:../lib_shared/Core/Src/stm32f4xx_it.c **** 
 149:../lib_shared/Core/Src/stm32f4xx_it.c ****   /* USER CODE END DebugMonitor_IRQn 0 */
 150:../lib_shared/Core/Src/stm32f4xx_it.c ****   /* USER CODE BEGIN DebugMonitor_IRQn 1 */
 151:../lib_shared/Core/Src/stm32f4xx_it.c **** 
 152:../lib_shared/Core/Src/stm32f4xx_it.c ****   /* USER CODE END DebugMonitor_IRQn 1 */
 153:../lib_shared/Core/Src/stm32f4xx_it.c **** }
 154:../lib_shared/Core/Src/stm32f4xx_it.c **** 
 155:../lib_shared/Core/Src/stm32f4xx_it.c **** /**
 156:../lib_shared/Core/Src/stm32f4xx_it.c ****   * @brief This function handles System tick timer.
 157:../lib_shared/Core/Src/stm32f4xx_it.c ****   */
 158:../lib_shared/Core/Src/stm32f4xx_it.c **** void SysTick_Handler(void)
 159:../lib_shared/Core/Src/stm32f4xx_it.c **** {
 170              		.loc 1 159 1 view -0
 171              		.cfi_startproc
 172              		@ args = 0, pretend = 0, frame = 0
 173              		@ frame_needed = 0, uses_anonymous_args = 0
 174              		@ link register save eliminated.
 160:../lib_shared/Core/Src/stm32f4xx_it.c ****   /* USER CODE BEGIN SysTick_IRQn 0 */
 161:../lib_shared/Core/Src/stm32f4xx_it.c **** 
 162:../lib_shared/Core/Src/stm32f4xx_it.c ****   /* USER CODE END SysTick_IRQn 0 */
 163:../lib_shared/Core/Src/stm32f4xx_it.c ****   HAL_IncTick();
 175              		.loc 1 163 3 view .LVU19
 176 0000 FFF7FEBF 		b	HAL_IncTick
 177              	.LVL0:
 178              		.cfi_endproc
 179              	.LFE136:
 181              		.section	.text.I2C1_EV_IRQHandler,"ax",%progbits
 182              		.align	1
 183              		.p2align 2,,3
 184              		.global	I2C1_EV_IRQHandler
 185              		.syntax unified
 186              		.thumb
 187              		.thumb_func
 188              		.fpu fpv4-sp-d16
 190              	I2C1_EV_IRQHandler:
ARM GAS  /tmp/ccZbFAOs.s 			page 7


 191              	.LFB137:
 164:../lib_shared/Core/Src/stm32f4xx_it.c ****   /* USER CODE BEGIN SysTick_IRQn 1 */
 165:../lib_shared/Core/Src/stm32f4xx_it.c **** 
 166:../lib_shared/Core/Src/stm32f4xx_it.c ****   /* USER CODE END SysTick_IRQn 1 */
 167:../lib_shared/Core/Src/stm32f4xx_it.c **** }
 168:../lib_shared/Core/Src/stm32f4xx_it.c **** 
 169:../lib_shared/Core/Src/stm32f4xx_it.c **** /******************************************************************************/
 170:../lib_shared/Core/Src/stm32f4xx_it.c **** /* STM32F4xx Peripheral Interrupt Handlers                                    */
 171:../lib_shared/Core/Src/stm32f4xx_it.c **** /* Add here the Interrupt Handlers for the used peripherals.                  */
 172:../lib_shared/Core/Src/stm32f4xx_it.c **** /* For the available peripheral interrupt handler names,                      */
 173:../lib_shared/Core/Src/stm32f4xx_it.c **** /* please refer to the startup file (startup_stm32f4xx.s).                    */
 174:../lib_shared/Core/Src/stm32f4xx_it.c **** /******************************************************************************/
 175:../lib_shared/Core/Src/stm32f4xx_it.c **** 
 176:../lib_shared/Core/Src/stm32f4xx_it.c **** /**
 177:../lib_shared/Core/Src/stm32f4xx_it.c ****   * @brief This function handles I2C1 event interrupt.
 178:../lib_shared/Core/Src/stm32f4xx_it.c ****   */
 179:../lib_shared/Core/Src/stm32f4xx_it.c **** void I2C1_EV_IRQHandler(void)
 180:../lib_shared/Core/Src/stm32f4xx_it.c **** {
 192              		.loc 1 180 1 view -0
 193              		.cfi_startproc
 194              		@ args = 0, pretend = 0, frame = 0
 195              		@ frame_needed = 0, uses_anonymous_args = 0
 196              		@ link register save eliminated.
 181:../lib_shared/Core/Src/stm32f4xx_it.c ****   /* USER CODE BEGIN I2C1_EV_IRQn 0 */
 182:../lib_shared/Core/Src/stm32f4xx_it.c **** 
 183:../lib_shared/Core/Src/stm32f4xx_it.c ****   /* USER CODE END I2C1_EV_IRQn 0 */
 184:../lib_shared/Core/Src/stm32f4xx_it.c ****   HAL_I2C_EV_IRQHandler(&hi2c1);
 197              		.loc 1 184 3 view .LVU21
 198 0000 0148     		ldr	r0, .L14
 199 0002 FFF7FEBF 		b	HAL_I2C_EV_IRQHandler
 200              	.LVL1:
 201              	.L15:
 202 0006 00BF     		.align	2
 203              	.L14:
 204 0008 00000000 		.word	hi2c1
 205              		.cfi_endproc
 206              	.LFE137:
 208              		.section	.text.I2C1_ER_IRQHandler,"ax",%progbits
 209              		.align	1
 210              		.p2align 2,,3
 211              		.global	I2C1_ER_IRQHandler
 212              		.syntax unified
 213              		.thumb
 214              		.thumb_func
 215              		.fpu fpv4-sp-d16
 217              	I2C1_ER_IRQHandler:
 218              	.LFB138:
 185:../lib_shared/Core/Src/stm32f4xx_it.c ****   /* USER CODE BEGIN I2C1_EV_IRQn 1 */
 186:../lib_shared/Core/Src/stm32f4xx_it.c **** 
 187:../lib_shared/Core/Src/stm32f4xx_it.c ****   /* USER CODE END I2C1_EV_IRQn 1 */
 188:../lib_shared/Core/Src/stm32f4xx_it.c **** }
 189:../lib_shared/Core/Src/stm32f4xx_it.c **** 
 190:../lib_shared/Core/Src/stm32f4xx_it.c **** /**
 191:../lib_shared/Core/Src/stm32f4xx_it.c ****   * @brief This function handles I2C1 error interrupt.
 192:../lib_shared/Core/Src/stm32f4xx_it.c ****   */
 193:../lib_shared/Core/Src/stm32f4xx_it.c **** void I2C1_ER_IRQHandler(void)
 194:../lib_shared/Core/Src/stm32f4xx_it.c **** {
ARM GAS  /tmp/ccZbFAOs.s 			page 8


 219              		.loc 1 194 1 view -0
 220              		.cfi_startproc
 221              		@ args = 0, pretend = 0, frame = 0
 222              		@ frame_needed = 0, uses_anonymous_args = 0
 223              		@ link register save eliminated.
 195:../lib_shared/Core/Src/stm32f4xx_it.c ****   /* USER CODE BEGIN I2C1_ER_IRQn 0 */
 196:../lib_shared/Core/Src/stm32f4xx_it.c **** 
 197:../lib_shared/Core/Src/stm32f4xx_it.c ****   /* USER CODE END I2C1_ER_IRQn 0 */
 198:../lib_shared/Core/Src/stm32f4xx_it.c ****   HAL_I2C_ER_IRQHandler(&hi2c1);
 224              		.loc 1 198 3 view .LVU23
 225 0000 0148     		ldr	r0, .L17
 226 0002 FFF7FEBF 		b	HAL_I2C_ER_IRQHandler
 227              	.LVL2:
 228              	.L18:
 229 0006 00BF     		.align	2
 230              	.L17:
 231 0008 00000000 		.word	hi2c1
 232              		.cfi_endproc
 233              	.LFE138:
 235              		.section	.text.USART1_IRQHandler,"ax",%progbits
 236              		.align	1
 237              		.p2align 2,,3
 238              		.global	USART1_IRQHandler
 239              		.syntax unified
 240              		.thumb
 241              		.thumb_func
 242              		.fpu fpv4-sp-d16
 244              	USART1_IRQHandler:
 245              	.LFB139:
 199:../lib_shared/Core/Src/stm32f4xx_it.c ****   /* USER CODE BEGIN I2C1_ER_IRQn 1 */
 200:../lib_shared/Core/Src/stm32f4xx_it.c **** 
 201:../lib_shared/Core/Src/stm32f4xx_it.c ****   /* USER CODE END I2C1_ER_IRQn 1 */
 202:../lib_shared/Core/Src/stm32f4xx_it.c **** }
 203:../lib_shared/Core/Src/stm32f4xx_it.c **** 
 204:../lib_shared/Core/Src/stm32f4xx_it.c **** /**
 205:../lib_shared/Core/Src/stm32f4xx_it.c ****   * @brief This function handles USART1 global interrupt.
 206:../lib_shared/Core/Src/stm32f4xx_it.c ****   */
 207:../lib_shared/Core/Src/stm32f4xx_it.c **** void USART1_IRQHandler(void)
 208:../lib_shared/Core/Src/stm32f4xx_it.c **** {
 246              		.loc 1 208 1 view -0
 247              		.cfi_startproc
 248              		@ args = 0, pretend = 0, frame = 0
 249              		@ frame_needed = 0, uses_anonymous_args = 0
 250              		@ link register save eliminated.
 209:../lib_shared/Core/Src/stm32f4xx_it.c ****   /* USER CODE BEGIN USART1_IRQn 0 */
 210:../lib_shared/Core/Src/stm32f4xx_it.c **** 
 211:../lib_shared/Core/Src/stm32f4xx_it.c ****   /* USER CODE END USART1_IRQn 0 */
 212:../lib_shared/Core/Src/stm32f4xx_it.c ****   HAL_USART_IRQHandler(&husart1);
 251              		.loc 1 212 3 view .LVU25
 252 0000 0148     		ldr	r0, .L20
 253 0002 FFF7FEBF 		b	HAL_USART_IRQHandler
 254              	.LVL3:
 255              	.L21:
 256 0006 00BF     		.align	2
 257              	.L20:
 258 0008 00000000 		.word	husart1
 259              		.cfi_endproc
ARM GAS  /tmp/ccZbFAOs.s 			page 9


 260              	.LFE139:
 262              		.section	.text.SDIO_IRQHandler,"ax",%progbits
 263              		.align	1
 264              		.p2align 2,,3
 265              		.global	SDIO_IRQHandler
 266              		.syntax unified
 267              		.thumb
 268              		.thumb_func
 269              		.fpu fpv4-sp-d16
 271              	SDIO_IRQHandler:
 272              	.LFB140:
 213:../lib_shared/Core/Src/stm32f4xx_it.c ****   /* USER CODE BEGIN USART1_IRQn 1 */
 214:../lib_shared/Core/Src/stm32f4xx_it.c **** 
 215:../lib_shared/Core/Src/stm32f4xx_it.c ****   /* USER CODE END USART1_IRQn 1 */
 216:../lib_shared/Core/Src/stm32f4xx_it.c **** }
 217:../lib_shared/Core/Src/stm32f4xx_it.c **** 
 218:../lib_shared/Core/Src/stm32f4xx_it.c **** /**
 219:../lib_shared/Core/Src/stm32f4xx_it.c ****   * @brief This function handles SDIO global interrupt.
 220:../lib_shared/Core/Src/stm32f4xx_it.c ****   */
 221:../lib_shared/Core/Src/stm32f4xx_it.c **** void SDIO_IRQHandler(void)
 222:../lib_shared/Core/Src/stm32f4xx_it.c **** {
 273              		.loc 1 222 1 view -0
 274              		.cfi_startproc
 275              		@ args = 0, pretend = 0, frame = 0
 276              		@ frame_needed = 0, uses_anonymous_args = 0
 277              		@ link register save eliminated.
 223:../lib_shared/Core/Src/stm32f4xx_it.c ****   /* USER CODE BEGIN SDIO_IRQn 0 */
 224:../lib_shared/Core/Src/stm32f4xx_it.c **** 
 225:../lib_shared/Core/Src/stm32f4xx_it.c ****   /* USER CODE END SDIO_IRQn 0 */
 226:../lib_shared/Core/Src/stm32f4xx_it.c ****   HAL_SD_IRQHandler(&hsd);
 278              		.loc 1 226 3 view .LVU27
 279 0000 0148     		ldr	r0, .L23
 280 0002 FFF7FEBF 		b	HAL_SD_IRQHandler
 281              	.LVL4:
 282              	.L24:
 283 0006 00BF     		.align	2
 284              	.L23:
 285 0008 00000000 		.word	hsd
 286              		.cfi_endproc
 287              	.LFE140:
 289              		.text
 290              	.Letext0:
 291              		.file 2 "/usr/lib/gcc/arm-none-eabi/9.2.1/include/stdint.h"
 292              		.file 3 "../lib_shared/Drivers/CMSIS/Core/Include/core_cm4.h"
 293              		.file 4 "../lib_shared/Drivers/CMSIS/Device/ST/STM32F4xx/Include/system_stm32f4xx.h"
 294              		.file 5 "../lib_shared/Drivers/CMSIS/Device/ST/STM32F4xx/Include/stm32f407xx.h"
 295              		.file 6 "../lib_shared/Drivers/STM32F4xx_HAL_Driver/Inc/stm32f4xx_hal_def.h"
 296              		.file 7 "../lib_shared/Drivers/STM32F4xx_HAL_Driver/Inc/stm32f4xx_hal_dma.h"
 297              		.file 8 "../lib_shared/Drivers/STM32F4xx_HAL_Driver/Inc/stm32f4xx_hal_i2c.h"
 298              		.file 9 "../lib_shared/Drivers/STM32F4xx_HAL_Driver/Inc/stm32f4xx_ll_sdmmc.h"
 299              		.file 10 "../lib_shared/Drivers/STM32F4xx_HAL_Driver/Inc/stm32f4xx_hal_sd.h"
 300              		.file 11 "../lib_shared/Drivers/STM32F4xx_HAL_Driver/Inc/stm32f4xx_hal_usart.h"
 301              		.file 12 "../lib_shared/Drivers/STM32F4xx_HAL_Driver/Inc/stm32f4xx_hal.h"
ARM GAS  /tmp/ccZbFAOs.s 			page 10

