ARM GAS  /tmp/cc5CKx2R.s 			page 1


   1              		.cpu cortex-m4
   2              		.eabi_attribute 27, 1
   3              		.eabi_attribute 28, 1
   4              		.eabi_attribute 20, 1
   5              		.eabi_attribute 21, 1
   6              		.eabi_attribute 23, 3
   7              		.eabi_attribute 24, 1
   8              		.eabi_attribute 25, 1
   9              		.eabi_attribute 26, 1
  10              		.eabi_attribute 30, 2
  11              		.eabi_attribute 34, 1
  12              		.eabi_attribute 18, 4
  13              		.file	"usart.c"
  14              		.text
  15              	.Ltext0:
  16              		.cfi_sections	.debug_frame
  17              		.section	.text.MX_USART1_UART_Init,"ax",%progbits
  18              		.align	1
  19              		.p2align 2,,3
  20              		.global	MX_USART1_UART_Init
  21              		.arch armv7e-m
  22              		.syntax unified
  23              		.thumb
  24              		.thumb_func
  25              		.fpu fpv4-sp-d16
  27              	MX_USART1_UART_Init:
  28              	.LFB130:
  29              		.file 1 "../lib_shared/Core/Src/usart.c"
   1:../lib_shared/Core/Src/usart.c **** /**
   2:../lib_shared/Core/Src/usart.c ****   ******************************************************************************
   3:../lib_shared/Core/Src/usart.c ****   * File Name          : USART.c
   4:../lib_shared/Core/Src/usart.c ****   * Description        : This file provides code for the configuration
   5:../lib_shared/Core/Src/usart.c ****   *                      of the USART instances.
   6:../lib_shared/Core/Src/usart.c ****   ******************************************************************************
   7:../lib_shared/Core/Src/usart.c ****   * @attention
   8:../lib_shared/Core/Src/usart.c ****   *
   9:../lib_shared/Core/Src/usart.c ****   * <h2><center>&copy; Copyright (c) 2019 STMicroelectronics.
  10:../lib_shared/Core/Src/usart.c ****   * All rights reserved.</center></h2>
  11:../lib_shared/Core/Src/usart.c ****   *
  12:../lib_shared/Core/Src/usart.c ****   * This software component is licensed by ST under Ultimate Liberty license
  13:../lib_shared/Core/Src/usart.c ****   * SLA0044, the "License"; You may not use this file except in compliance with
  14:../lib_shared/Core/Src/usart.c ****   * the License. You may obtain a copy of the License at:
  15:../lib_shared/Core/Src/usart.c ****   *                             www.st.com/SLA0044
  16:../lib_shared/Core/Src/usart.c ****   *
  17:../lib_shared/Core/Src/usart.c ****   ******************************************************************************
  18:../lib_shared/Core/Src/usart.c ****   */
  19:../lib_shared/Core/Src/usart.c **** 
  20:../lib_shared/Core/Src/usart.c **** /* Includes ------------------------------------------------------------------*/
  21:../lib_shared/Core/Src/usart.c **** #include "usart.h"
  22:../lib_shared/Core/Src/usart.c **** 
  23:../lib_shared/Core/Src/usart.c **** /* USER CODE BEGIN 0 */
  24:../lib_shared/Core/Src/usart.c **** 
  25:../lib_shared/Core/Src/usart.c **** /* USER CODE END 0 */
  26:../lib_shared/Core/Src/usart.c **** 
  27:../lib_shared/Core/Src/usart.c **** UART_HandleTypeDef huart1;
  28:../lib_shared/Core/Src/usart.c **** 
  29:../lib_shared/Core/Src/usart.c **** /* USART1 init function */
ARM GAS  /tmp/cc5CKx2R.s 			page 2


  30:../lib_shared/Core/Src/usart.c **** 
  31:../lib_shared/Core/Src/usart.c **** void MX_USART1_UART_Init(void)
  32:../lib_shared/Core/Src/usart.c **** {
  30              		.loc 1 32 1 view -0
  31              		.cfi_startproc
  32              		@ args = 0, pretend = 0, frame = 0
  33              		@ frame_needed = 0, uses_anonymous_args = 0
  33:../lib_shared/Core/Src/usart.c **** 
  34:../lib_shared/Core/Src/usart.c ****   huart1.Instance = USART1;
  34              		.loc 1 34 3 view .LVU1
  35              		.loc 1 34 19 is_stmt 0 view .LVU2
  36 0000 0B48     		ldr	r0, .L6
  32:../lib_shared/Core/Src/usart.c **** 
  37              		.loc 1 32 1 view .LVU3
  38 0002 08B5     		push	{r3, lr}
  39              	.LCFI0:
  40              		.cfi_def_cfa_offset 8
  41              		.cfi_offset 3, -8
  42              		.cfi_offset 14, -4
  43              		.loc 1 34 19 view .LVU4
  44 0004 0B4B     		ldr	r3, .L6+4
  45 0006 0360     		str	r3, [r0]
  35:../lib_shared/Core/Src/usart.c ****   huart1.Init.BaudRate = 9600;
  46              		.loc 1 35 3 is_stmt 1 view .LVU5
  47              		.loc 1 35 24 is_stmt 0 view .LVU6
  48 0008 4FF41651 		mov	r1, #9600
  36:../lib_shared/Core/Src/usart.c ****   huart1.Init.WordLength = UART_WORDLENGTH_8B;
  49              		.loc 1 36 26 view .LVU7
  50 000c 0023     		movs	r3, #0
  37:../lib_shared/Core/Src/usart.c ****   huart1.Init.StopBits = UART_STOPBITS_1;
  38:../lib_shared/Core/Src/usart.c ****   huart1.Init.Parity = UART_PARITY_NONE;
  39:../lib_shared/Core/Src/usart.c ****   huart1.Init.Mode = UART_MODE_TX_RX;
  51              		.loc 1 39 20 view .LVU8
  52 000e 0C22     		movs	r2, #12
  37:../lib_shared/Core/Src/usart.c ****   huart1.Init.StopBits = UART_STOPBITS_1;
  53              		.loc 1 37 24 view .LVU9
  54 0010 C0E90233 		strd	r3, r3, [r0, #8]
  40:../lib_shared/Core/Src/usart.c ****   huart1.Init.HwFlowCtl = UART_HWCONTROL_NONE;
  41:../lib_shared/Core/Src/usart.c ****   huart1.Init.OverSampling = UART_OVERSAMPLING_16;
  55              		.loc 1 41 28 view .LVU10
  56 0014 C0E90633 		strd	r3, r3, [r0, #24]
  35:../lib_shared/Core/Src/usart.c ****   huart1.Init.WordLength = UART_WORDLENGTH_8B;
  57              		.loc 1 35 24 view .LVU11
  58 0018 4160     		str	r1, [r0, #4]
  36:../lib_shared/Core/Src/usart.c ****   huart1.Init.StopBits = UART_STOPBITS_1;
  59              		.loc 1 36 3 is_stmt 1 view .LVU12
  38:../lib_shared/Core/Src/usart.c ****   huart1.Init.Mode = UART_MODE_TX_RX;
  60              		.loc 1 38 3 view .LVU13
  39:../lib_shared/Core/Src/usart.c ****   huart1.Init.HwFlowCtl = UART_HWCONTROL_NONE;
  61              		.loc 1 39 20 is_stmt 0 view .LVU14
  62 001a 4261     		str	r2, [r0, #20]
  38:../lib_shared/Core/Src/usart.c ****   huart1.Init.Mode = UART_MODE_TX_RX;
  63              		.loc 1 38 22 view .LVU15
  64 001c 0361     		str	r3, [r0, #16]
  39:../lib_shared/Core/Src/usart.c ****   huart1.Init.HwFlowCtl = UART_HWCONTROL_NONE;
  65              		.loc 1 39 3 is_stmt 1 view .LVU16
  40:../lib_shared/Core/Src/usart.c ****   huart1.Init.OverSampling = UART_OVERSAMPLING_16;
ARM GAS  /tmp/cc5CKx2R.s 			page 3


  66              		.loc 1 40 3 view .LVU17
  42:../lib_shared/Core/Src/usart.c ****   if (HAL_UART_Init(&huart1) != HAL_OK)
  67              		.loc 1 42 3 view .LVU18
  68              		.loc 1 42 7 is_stmt 0 view .LVU19
  69 001e FFF7FEFF 		bl	HAL_UART_Init
  70              	.LVL0:
  71              		.loc 1 42 6 view .LVU20
  72 0022 00B9     		cbnz	r0, .L5
  43:../lib_shared/Core/Src/usart.c ****   {
  44:../lib_shared/Core/Src/usart.c ****     Error_Handler();
  45:../lib_shared/Core/Src/usart.c ****   }
  46:../lib_shared/Core/Src/usart.c **** 
  47:../lib_shared/Core/Src/usart.c **** }
  73              		.loc 1 47 1 view .LVU21
  74 0024 08BD     		pop	{r3, pc}
  75              	.L5:
  44:../lib_shared/Core/Src/usart.c ****   }
  76              		.loc 1 44 5 is_stmt 1 view .LVU22
  77              		.loc 1 47 1 is_stmt 0 view .LVU23
  78 0026 BDE80840 		pop	{r3, lr}
  79              	.LCFI1:
  80              		.cfi_restore 14
  81              		.cfi_restore 3
  82              		.cfi_def_cfa_offset 0
  44:../lib_shared/Core/Src/usart.c ****   }
  83              		.loc 1 44 5 view .LVU24
  84 002a FFF7FEBF 		b	Error_Handler
  85              	.LVL1:
  86              	.L7:
  87 002e 00BF     		.align	2
  88              	.L6:
  89 0030 00000000 		.word	huart1
  90 0034 00100140 		.word	1073811456
  91              		.cfi_endproc
  92              	.LFE130:
  94              		.section	.text.HAL_UART_MspInit,"ax",%progbits
  95              		.align	1
  96              		.p2align 2,,3
  97              		.global	HAL_UART_MspInit
  98              		.syntax unified
  99              		.thumb
 100              		.thumb_func
 101              		.fpu fpv4-sp-d16
 103              	HAL_UART_MspInit:
 104              	.LVL2:
 105              	.LFB131:
  48:../lib_shared/Core/Src/usart.c **** 
  49:../lib_shared/Core/Src/usart.c **** void HAL_UART_MspInit(UART_HandleTypeDef* uartHandle)
  50:../lib_shared/Core/Src/usart.c **** {
 106              		.loc 1 50 1 is_stmt 1 view -0
 107              		.cfi_startproc
 108              		@ args = 0, pretend = 0, frame = 32
 109              		@ frame_needed = 0, uses_anonymous_args = 0
  51:../lib_shared/Core/Src/usart.c **** 
  52:../lib_shared/Core/Src/usart.c ****   GPIO_InitTypeDef GPIO_InitStruct = {0};
 110              		.loc 1 52 3 view .LVU26
  50:../lib_shared/Core/Src/usart.c **** 
ARM GAS  /tmp/cc5CKx2R.s 			page 4


 111              		.loc 1 50 1 is_stmt 0 view .LVU27
 112 0000 30B5     		push	{r4, r5, lr}
 113              	.LCFI2:
 114              		.cfi_def_cfa_offset 12
 115              		.cfi_offset 4, -12
 116              		.cfi_offset 5, -8
 117              		.cfi_offset 14, -4
  53:../lib_shared/Core/Src/usart.c ****   if(uartHandle->Instance==USART1)
 118              		.loc 1 53 5 view .LVU28
 119 0002 0168     		ldr	r1, [r0]
 120 0004 194A     		ldr	r2, .L12
  50:../lib_shared/Core/Src/usart.c **** 
 121              		.loc 1 50 1 view .LVU29
 122 0006 89B0     		sub	sp, sp, #36
 123              	.LCFI3:
 124              		.cfi_def_cfa_offset 48
  52:../lib_shared/Core/Src/usart.c ****   if(uartHandle->Instance==USART1)
 125              		.loc 1 52 20 view .LVU30
 126 0008 0023     		movs	r3, #0
 127              		.loc 1 53 5 view .LVU31
 128 000a 9142     		cmp	r1, r2
  52:../lib_shared/Core/Src/usart.c ****   if(uartHandle->Instance==USART1)
 129              		.loc 1 52 20 view .LVU32
 130 000c CDE90233 		strd	r3, r3, [sp, #8]
 131 0010 CDE90433 		strd	r3, r3, [sp, #16]
 132 0014 0693     		str	r3, [sp, #24]
 133              		.loc 1 53 3 is_stmt 1 view .LVU33
 134              		.loc 1 53 5 is_stmt 0 view .LVU34
 135 0016 01D0     		beq	.L11
  54:../lib_shared/Core/Src/usart.c ****   {
  55:../lib_shared/Core/Src/usart.c ****   /* USER CODE BEGIN USART1_MspInit 0 */
  56:../lib_shared/Core/Src/usart.c **** 
  57:../lib_shared/Core/Src/usart.c ****   /* USER CODE END USART1_MspInit 0 */
  58:../lib_shared/Core/Src/usart.c ****     /* USART1 clock enable */
  59:../lib_shared/Core/Src/usart.c ****     __HAL_RCC_USART1_CLK_ENABLE();
  60:../lib_shared/Core/Src/usart.c ****   
  61:../lib_shared/Core/Src/usart.c ****     __HAL_RCC_GPIOA_CLK_ENABLE();
  62:../lib_shared/Core/Src/usart.c ****     /**USART1 GPIO Configuration    
  63:../lib_shared/Core/Src/usart.c ****     PA9     ------> USART1_TX
  64:../lib_shared/Core/Src/usart.c ****     PA10     ------> USART1_RX 
  65:../lib_shared/Core/Src/usart.c ****     */
  66:../lib_shared/Core/Src/usart.c ****     GPIO_InitStruct.Pin = GPIO_PIN_9|GPIO_PIN_10;
  67:../lib_shared/Core/Src/usart.c ****     GPIO_InitStruct.Mode = GPIO_MODE_AF_PP;
  68:../lib_shared/Core/Src/usart.c ****     GPIO_InitStruct.Pull = GPIO_PULLUP;
  69:../lib_shared/Core/Src/usart.c ****     GPIO_InitStruct.Speed = GPIO_SPEED_FREQ_VERY_HIGH;
  70:../lib_shared/Core/Src/usart.c ****     GPIO_InitStruct.Alternate = GPIO_AF7_USART1;
  71:../lib_shared/Core/Src/usart.c ****     HAL_GPIO_Init(GPIOA, &GPIO_InitStruct);
  72:../lib_shared/Core/Src/usart.c **** 
  73:../lib_shared/Core/Src/usart.c ****   /* USER CODE BEGIN USART1_MspInit 1 */
  74:../lib_shared/Core/Src/usart.c **** 
  75:../lib_shared/Core/Src/usart.c ****   /* USER CODE END USART1_MspInit 1 */
  76:../lib_shared/Core/Src/usart.c ****   }
  77:../lib_shared/Core/Src/usart.c **** }
 136              		.loc 1 77 1 view .LVU35
 137 0018 09B0     		add	sp, sp, #36
 138              	.LCFI4:
 139              		.cfi_remember_state
ARM GAS  /tmp/cc5CKx2R.s 			page 5


 140              		.cfi_def_cfa_offset 12
 141              		@ sp needed
 142 001a 30BD     		pop	{r4, r5, pc}
 143              	.L11:
 144              	.LCFI5:
 145              		.cfi_restore_state
  59:../lib_shared/Core/Src/usart.c ****   
 146              		.loc 1 59 5 is_stmt 1 view .LVU36
 147              	.LBB2:
  59:../lib_shared/Core/Src/usart.c ****   
 148              		.loc 1 59 5 view .LVU37
 149 001c 02F59432 		add	r2, r2, #75776
 150 0020 0093     		str	r3, [sp]
  59:../lib_shared/Core/Src/usart.c ****   
 151              		.loc 1 59 5 view .LVU38
 152 0022 516C     		ldr	r1, [r2, #68]
 153              	.LBE2:
  71:../lib_shared/Core/Src/usart.c **** 
 154              		.loc 1 71 5 is_stmt 0 view .LVU39
 155 0024 1248     		ldr	r0, .L12+4
 156              	.LVL3:
 157              	.LBB3:
  59:../lib_shared/Core/Src/usart.c ****   
 158              		.loc 1 59 5 view .LVU40
 159 0026 41F01001 		orr	r1, r1, #16
 160 002a 5164     		str	r1, [r2, #68]
  59:../lib_shared/Core/Src/usart.c ****   
 161              		.loc 1 59 5 is_stmt 1 view .LVU41
 162 002c 516C     		ldr	r1, [r2, #68]
 163 002e 01F01001 		and	r1, r1, #16
 164 0032 0091     		str	r1, [sp]
  59:../lib_shared/Core/Src/usart.c ****   
 165              		.loc 1 59 5 view .LVU42
 166 0034 0099     		ldr	r1, [sp]
 167              	.LBE3:
  59:../lib_shared/Core/Src/usart.c ****   
 168              		.loc 1 59 5 view .LVU43
  61:../lib_shared/Core/Src/usart.c ****     /**USART1 GPIO Configuration    
 169              		.loc 1 61 5 view .LVU44
 170              	.LBB4:
  61:../lib_shared/Core/Src/usart.c ****     /**USART1 GPIO Configuration    
 171              		.loc 1 61 5 view .LVU45
 172 0036 0193     		str	r3, [sp, #4]
  61:../lib_shared/Core/Src/usart.c ****     /**USART1 GPIO Configuration    
 173              		.loc 1 61 5 view .LVU46
 174 0038 136B     		ldr	r3, [r2, #48]
 175 003a 43F00103 		orr	r3, r3, #1
 176 003e 1363     		str	r3, [r2, #48]
  61:../lib_shared/Core/Src/usart.c ****     /**USART1 GPIO Configuration    
 177              		.loc 1 61 5 view .LVU47
 178 0040 136B     		ldr	r3, [r2, #48]
 179 0042 03F00103 		and	r3, r3, #1
 180 0046 0193     		str	r3, [sp, #4]
  61:../lib_shared/Core/Src/usart.c ****     /**USART1 GPIO Configuration    
 181              		.loc 1 61 5 view .LVU48
 182              	.LBE4:
  70:../lib_shared/Core/Src/usart.c ****     HAL_GPIO_Init(GPIOA, &GPIO_InitStruct);
ARM GAS  /tmp/cc5CKx2R.s 			page 6


 183              		.loc 1 70 31 is_stmt 0 view .LVU49
 184 0048 0723     		movs	r3, #7
 185              	.LBB5:
  61:../lib_shared/Core/Src/usart.c ****     /**USART1 GPIO Configuration    
 186              		.loc 1 61 5 view .LVU50
 187 004a 019A     		ldr	r2, [sp, #4]
 188              	.LBE5:
  61:../lib_shared/Core/Src/usart.c ****     /**USART1 GPIO Configuration    
 189              		.loc 1 61 5 is_stmt 1 view .LVU51
  66:../lib_shared/Core/Src/usart.c ****     GPIO_InitStruct.Mode = GPIO_MODE_AF_PP;
 190              		.loc 1 66 5 view .LVU52
  67:../lib_shared/Core/Src/usart.c ****     GPIO_InitStruct.Pull = GPIO_PULLUP;
 191              		.loc 1 67 5 view .LVU53
  68:../lib_shared/Core/Src/usart.c ****     GPIO_InitStruct.Speed = GPIO_SPEED_FREQ_VERY_HIGH;
 192              		.loc 1 68 5 view .LVU54
  69:../lib_shared/Core/Src/usart.c ****     GPIO_InitStruct.Alternate = GPIO_AF7_USART1;
 193              		.loc 1 69 5 view .LVU55
  70:../lib_shared/Core/Src/usart.c ****     HAL_GPIO_Init(GPIOA, &GPIO_InitStruct);
 194              		.loc 1 70 31 is_stmt 0 view .LVU56
 195 004c 0693     		str	r3, [sp, #24]
  66:../lib_shared/Core/Src/usart.c ****     GPIO_InitStruct.Mode = GPIO_MODE_AF_PP;
 196              		.loc 1 66 25 view .LVU57
 197 004e 0122     		movs	r2, #1
 198 0050 0323     		movs	r3, #3
  71:../lib_shared/Core/Src/usart.c **** 
 199              		.loc 1 71 5 view .LVU58
 200 0052 02A9     		add	r1, sp, #8
  66:../lib_shared/Core/Src/usart.c ****     GPIO_InitStruct.Mode = GPIO_MODE_AF_PP;
 201              		.loc 1 66 25 view .LVU59
 202 0054 4FF4C064 		mov	r4, #1536
 203 0058 0225     		movs	r5, #2
 204 005a CDE90245 		strd	r4, [sp, #8]
 205 005e CDE90423 		strd	r2, [sp, #16]
  70:../lib_shared/Core/Src/usart.c ****     HAL_GPIO_Init(GPIOA, &GPIO_InitStruct);
 206              		.loc 1 70 5 is_stmt 1 view .LVU60
  71:../lib_shared/Core/Src/usart.c **** 
 207              		.loc 1 71 5 view .LVU61
 208 0062 FFF7FEFF 		bl	HAL_GPIO_Init
 209              	.LVL4:
 210              		.loc 1 77 1 is_stmt 0 view .LVU62
 211 0066 09B0     		add	sp, sp, #36
 212              	.LCFI6:
 213              		.cfi_def_cfa_offset 12
 214              		@ sp needed
 215 0068 30BD     		pop	{r4, r5, pc}
 216              	.L13:
 217 006a 00BF     		.align	2
 218              	.L12:
 219 006c 00100140 		.word	1073811456
 220 0070 00000240 		.word	1073872896
 221              		.cfi_endproc
 222              	.LFE131:
 224              		.section	.text.HAL_UART_MspDeInit,"ax",%progbits
 225              		.align	1
 226              		.p2align 2,,3
 227              		.global	HAL_UART_MspDeInit
 228              		.syntax unified
ARM GAS  /tmp/cc5CKx2R.s 			page 7


 229              		.thumb
 230              		.thumb_func
 231              		.fpu fpv4-sp-d16
 233              	HAL_UART_MspDeInit:
 234              	.LVL5:
 235              	.LFB132:
  78:../lib_shared/Core/Src/usart.c **** 
  79:../lib_shared/Core/Src/usart.c **** void HAL_UART_MspDeInit(UART_HandleTypeDef* uartHandle)
  80:../lib_shared/Core/Src/usart.c **** {
 236              		.loc 1 80 1 is_stmt 1 view -0
 237              		.cfi_startproc
 238              		@ args = 0, pretend = 0, frame = 0
 239              		@ frame_needed = 0, uses_anonymous_args = 0
 240              		@ link register save eliminated.
  81:../lib_shared/Core/Src/usart.c **** 
  82:../lib_shared/Core/Src/usart.c ****   if(uartHandle->Instance==USART1)
 241              		.loc 1 82 3 view .LVU64
 242              		.loc 1 82 5 is_stmt 0 view .LVU65
 243 0000 074B     		ldr	r3, .L17
 244 0002 0268     		ldr	r2, [r0]
 245 0004 9A42     		cmp	r2, r3
 246 0006 00D0     		beq	.L16
  83:../lib_shared/Core/Src/usart.c ****   {
  84:../lib_shared/Core/Src/usart.c ****   /* USER CODE BEGIN USART1_MspDeInit 0 */
  85:../lib_shared/Core/Src/usart.c **** 
  86:../lib_shared/Core/Src/usart.c ****   /* USER CODE END USART1_MspDeInit 0 */
  87:../lib_shared/Core/Src/usart.c ****     /* Peripheral clock disable */
  88:../lib_shared/Core/Src/usart.c ****     __HAL_RCC_USART1_CLK_DISABLE();
  89:../lib_shared/Core/Src/usart.c ****   
  90:../lib_shared/Core/Src/usart.c ****     /**USART1 GPIO Configuration    
  91:../lib_shared/Core/Src/usart.c ****     PA9     ------> USART1_TX
  92:../lib_shared/Core/Src/usart.c ****     PA10     ------> USART1_RX 
  93:../lib_shared/Core/Src/usart.c ****     */
  94:../lib_shared/Core/Src/usart.c ****     HAL_GPIO_DeInit(GPIOA, GPIO_PIN_9|GPIO_PIN_10);
  95:../lib_shared/Core/Src/usart.c **** 
  96:../lib_shared/Core/Src/usart.c ****   /* USER CODE BEGIN USART1_MspDeInit 1 */
  97:../lib_shared/Core/Src/usart.c **** 
  98:../lib_shared/Core/Src/usart.c ****   /* USER CODE END USART1_MspDeInit 1 */
  99:../lib_shared/Core/Src/usart.c ****   }
 100:../lib_shared/Core/Src/usart.c **** } 
 247              		.loc 1 100 1 view .LVU66
 248 0008 7047     		bx	lr
 249              	.L16:
  88:../lib_shared/Core/Src/usart.c ****   
 250              		.loc 1 88 5 is_stmt 1 view .LVU67
 251 000a 064A     		ldr	r2, .L17+4
  94:../lib_shared/Core/Src/usart.c **** 
 252              		.loc 1 94 5 is_stmt 0 view .LVU68
 253 000c 0648     		ldr	r0, .L17+8
 254              	.LVL6:
  88:../lib_shared/Core/Src/usart.c ****   
 255              		.loc 1 88 5 view .LVU69
 256 000e 536C     		ldr	r3, [r2, #68]
 257 0010 23F01003 		bic	r3, r3, #16
 258 0014 5364     		str	r3, [r2, #68]
  94:../lib_shared/Core/Src/usart.c **** 
 259              		.loc 1 94 5 is_stmt 1 view .LVU70
ARM GAS  /tmp/cc5CKx2R.s 			page 8


 260 0016 4FF4C061 		mov	r1, #1536
 261 001a FFF7FEBF 		b	HAL_GPIO_DeInit
 262              	.LVL7:
 263              	.L18:
 264 001e 00BF     		.align	2
 265              	.L17:
 266 0020 00100140 		.word	1073811456
 267 0024 00380240 		.word	1073887232
 268 0028 00000240 		.word	1073872896
 269              		.cfi_endproc
 270              	.LFE132:
 272              		.comm	huart1,64,4
 273              		.text
 274              	.Letext0:
 275              		.file 2 "/usr/lib/gcc/arm-none-eabi/9.2.1/include/stdint.h"
 276              		.file 3 "../lib_shared/Drivers/CMSIS/Core/Include/core_cm4.h"
 277              		.file 4 "../lib_shared/Drivers/CMSIS/Device/ST/STM32F4xx/Include/system_stm32f4xx.h"
 278              		.file 5 "../lib_shared/Drivers/CMSIS/Device/ST/STM32F4xx/Include/stm32f407xx.h"
 279              		.file 6 "../lib_shared/Drivers/STM32F4xx_HAL_Driver/Inc/stm32f4xx_hal_def.h"
 280              		.file 7 "../lib_shared/Drivers/STM32F4xx_HAL_Driver/Inc/stm32f4xx_hal_gpio.h"
 281              		.file 8 "../lib_shared/Drivers/STM32F4xx_HAL_Driver/Inc/stm32f4xx_hal_dma.h"
 282              		.file 9 "../lib_shared/Drivers/STM32F4xx_HAL_Driver/Inc/stm32f4xx_hal_uart.h"
 283              		.file 10 "../lib_shared/Core/Inc/usart.h"
 284              		.file 11 "../lib_shared/Core/Inc/main.h"
ARM GAS  /tmp/cc5CKx2R.s 			page 9

